target datalayout = "e-m:e-p270:32:32-p271:32:32-p272:64:64-i64:64-i128:128-f80:128-n8:16:32:64-S128"
target triple = "x86_64-unknown-linux-gnu"

%"class.sat::literal" = type { i32 }
%class.symbol = type { ptr }
%class.vector = type { ptr }
%"class.sat::extension" = type { ptr, i8, i32, %class.symbol, ptr }
%"class.sat::clause_allocator" = type { %class.sat_allocator, %class.id_gen }
%class.sat_allocator = type { ptr, i64, %class.ptr_vector.11, ptr, [65 x %class.ptr_vector.13] }
%class.ptr_vector.11 = type { %class.vector.12 }
%class.vector.12 = type { ptr }
%class.ptr_vector.13 = type { %class.vector.14 }
%class.vector.14 = type { ptr }
%class.id_gen = type { i32, %class.svector.7 }
%class.ptr_vector.15 = type { %class.vector.16 }
%class.vector.16 = type { ptr }
%class.svector.9 = type { %class.vector.10 }
%class.vector.10 = type { ptr }
%class.vector.17 = type { ptr }
%class.params_ref = type { ptr }
%"class.std::__cxx11::basic_string" = type { %"struct.std::__cxx11::basic_string<char>::_Alloc_hider", i64, %union.anon }
%"struct.std::__cxx11::basic_string<char>::_Alloc_hider" = type { ptr }
%union.anon = type { i64, [8 x i8] }
%class.svector.7 = type { %class.vector.8 }
%class.vector.8 = type { ptr }
%"class.sat::solver" = type { %"class.sat::solver_core", i8, [7 x i8], %"struct.sat::config", %"struct.sat::stats", %class.scoped_ptr.126, %class.scoped_ptr.127, ptr, %"class.sat::drat", [2 x %"class.sat::clause_allocator"], i8, %class.random_gen, %"class.sat::cleaner", %class.svector.134, %"class.sat::model_converter", i8, %"class.sat::simplifier", %"class.sat::scc", %"class.sat::asymm_branch", %"class.sat::probing", i8, [7 x i8], %"class.sat::mus", %"class.sat::binspr", i8, i8, [6 x i8], %"class.sat::justification", %"class.sat::literal", %class.ptr_vector.15, %class.ptr_vector.15, i32, %class.svector.7, %class.svector.7, %class.svector.7, %class.svector.7, %class.vector.157, %class.svector.134, %class.svector.158, %class.svector.9, %class.svector.9, %class.svector.9, %class.svector.9, %class.svector.9, %class.svector.7, %class.svector.7, i32, %class.svector, %class.svector.7, i32, %class.svector.160, %class.svector.160, %class.svector.160, %class.svector.160, %class.svector.160, i32, double, %class.svector.9, %class.svector.9, %class.svector.9, %class.svector.143, i32, i32, i32, i32, i32, i32, %"struct.sat::backoff", i32, i32, %"struct.sat::backoff", %"struct.sat::backoff", %class.var_queue, i32, i32, i32, %class.ema, %class.ema, %class.ema, %class.ema, %class.ema, %class.svector, %class.svector.145, %"class.std::__cxx11::basic_string", i8, %class.visit_helper, %class.svector.162, %class.scoped_limit_trail, %class.stopwatch, %class.params_ref, %"struct.sat::no_drat_params", %class.scoped_ptr.155, %class.svector, %"class.sat::literal_set", %"class.sat::literal_set", %class.svector, i32, i32, i32, i32, i8, ptr, ptr, %class.statistics, i32, i32, i32, i32, i8, i32, i32, i32, i32, i32, i32, i32, double, i32, double, i8, i8, %class.svector, i8, %class.svector.160, i32, i32, i32, %class.svector, %class.svector, %class.svector.143, %class.svector.7, %class.approx_set_tpl, %class.svector, %class.svector, %class.vector.17, %class.svector, %class.svector.153, %class.u_map, %class.svector }
%"class.sat::solver_core" = type { ptr, ptr }
%"struct.sat::config" = type <{ i64, i32, i32, i32, i8, [3 x i8], i32, i32, double, i32, i8, [3 x i8], i32, i8, [3 x i8], i32, [4 x i8], double, double, i32, i32, double, double, i32, [4 x i8], %class.symbol, double, i32, i32, i8, [3 x i8], i32, i32, i8, [3 x i8], i32, i8, [3 x i8], i32, i8, [3 x i8], i32, i8, i8, i8, i8, i32, i8, i8, i8, i8, i8, i8, i8, i8, i32, i8, i8, i8, i8, i32, double, i32, [4 x i8], double, double, double, double, i32, i8, i8, [2 x i8], double, i8, i8, [2 x i8], i32, double, i32, i32, i32, i32, i32, i32, i32, i32, i8, i8, i8, i8, i32, i32, i8, i8, i8, i8, i8, i8, i8, [5 x i8], %class.symbol, i8, i8, i8, i8, i8, i8, [2 x i8], i32, i32, i32, i8, [3 x i8], double, double, double, double, double, i8, [7 x i8] }>
%"struct.sat::stats" = type { i32, i32, i32, i32, i32, i32, i32, i32, i32, i32, i32, i32, i32, i32, i32, i32, i32, i32, i32, i32, i32 }
%class.scoped_ptr.126 = type { ptr }
%class.scoped_ptr.127 = type { ptr }
%class.random_gen = type { i32 }
%"class.sat::cleaner" = type { ptr, i32, i32, i32, i32 }
%"class.sat::model_converter" = type { %class.vector.136, i32, %class.svector.9, ptr, %class.svector.137 }
%class.vector.136 = type { ptr }
%class.svector.137 = type { %class.vector.138 }
%class.vector.138 = type { ptr }
%"class.sat::simplifier" = type { ptr, i32, %"class.sat::use_list", %"class.sat::ext_use_list", %"class.sat::clause_set", %class.svector.141, i32, %class.tracked_uint_set, i8, %"class.sat::tmp_clause", %class.svector.143, i32, i32, i8, i8, i8, i8, i32, i8, i8, i32, i8, i32, i8, i8, i32, i32, i32, i32, i32, i32, i32, i32, i32, i32, i8, i32, i8, i8, i32, i32, i32, i32, i32, i32, i32, i32, i32, i32, i32, i8, i32, %class.ptr_vector.15, %class.svector, %class.svector.145, %class.svector.145, %class.svector }
%"class.sat::use_list" = type { %class.vector.139 }
%class.vector.139 = type { ptr }
%"class.sat::ext_use_list" = type { %class.vector.140 }
%class.vector.140 = type { ptr }
%"class.sat::clause_set" = type { %class.svector.7, %class.ptr_vector.15 }
%class.svector.141 = type { %class.vector.142 }
%class.vector.142 = type { ptr }
%class.tracked_uint_set = type { %class.svector.143, %class.svector.7 }
%"class.sat::tmp_clause" = type { ptr }
%"class.sat::scc" = type { ptr, i8, i8, i32, i32, %"class.sat::big" }
%"class.sat::big" = type { ptr, i32, %class.vector.147, %class.svector.9, %class.svector.148, %class.svector.148, %class.svector, %class.svector, i8, i8, %class.vector.147 }
%class.svector.148 = type { %class.vector.149 }
%class.vector.149 = type { ptr }
%class.vector.147 = type { ptr }
%"class.sat::asymm_branch" = type { ptr, %class.params_ref, i64, %class.random_gen, i32, i32, i8, i32, i32, i8, i8, i64, i32, i32, i32, %class.svector, %class.svector, %class.svector.150, %class.svector.150, %class.svector, %class.svector }
%class.svector.150 = type { %class.vector.151 }
%class.vector.151 = type { ptr }
%"class.sat::probing" = type { ptr, i32, %"class.sat::literal_set", %class.svector, i32, i8, i32, i8, i8, i64, i32, %class.vector.152, %class.svector.153, %"class.sat::big" }
%class.vector.152 = type { ptr }
%"class.sat::mus" = type <{ ptr, %class.svector, %class.svector, i8, [7 x i8], %class.svector.134, i32, [4 x i8] }>
%"class.sat::binspr" = type <{ ptr, %class.scoped_ptr.155, i32, i32, %class.vector.156, i32, i32, %class.svector.9, %class.svector.9, %class.svector, %class.svector, i32, i32, i32, i32, i32, [4 x i32], [5 x i32], [5 x i32], [4 x i8] }>
%class.vector.156 = type { ptr }
%"class.sat::justification" = type <{ i32, [4 x i8], i64, i32, [4 x i8] }>
%class.vector.157 = type { ptr }
%class.svector.134 = type { %class.vector.135 }
%class.vector.135 = type { ptr }
%class.svector.158 = type { %class.vector.159 }
%class.vector.159 = type { ptr }
%"struct.sat::backoff" = type { i32, i32, i32, i32, i32 }
%class.var_queue = type { %class.heap }
%class.heap = type { %"struct.var_queue<svector<unsigned int>>::lt", %class.svector.148, %class.svector.148 }
%"struct.var_queue<svector<unsigned int>>::lt" = type { ptr }
%class.ema = type { double, double, double, i32, i32 }
%class.svector.145 = type { %class.vector.146 }
%class.vector.146 = type { ptr }
%class.visit_helper = type { %class.svector.7, i32, i32 }
%class.svector.162 = type { %class.vector.163 }
%class.vector.163 = type { ptr }
%class.scoped_limit_trail = type { %class.svector.7, i32, i32 }
%class.stopwatch = type <{ %"class.std::chrono::time_point", %"class.std::chrono::duration", i8, [7 x i8] }>
%"class.std::chrono::time_point" = type { %"class.std::chrono::duration" }
%"class.std::chrono::duration" = type { i64 }
%"struct.sat::no_drat_params" = type { %class.params_ref }
%class.scoped_ptr.155 = type { ptr }
%"class.sat::literal_set" = type { %class.tracked_uint_set }
%class.statistics = type { %class.svector.164, %class.svector.166 }
%class.svector.164 = type { %class.vector.165 }
%class.vector.165 = type { ptr }
%class.svector.166 = type { %class.vector.167 }
%class.vector.167 = type { ptr }
%class.svector.160 = type { %class.vector.161 }
%class.vector.161 = type { ptr }
%class.svector.143 = type { %class.vector.144 }
%class.vector.144 = type { ptr }
%class.approx_set_tpl = type { i32 }
%class.svector.153 = type { %class.vector.154 }
%class.vector.154 = type { ptr }
%class.u_map = type { %class.map.168 }
%class.map.168 = type { %class.table2map.169 }
%class.table2map.169 = type { %class.core_hashtable.170 }
%class.core_hashtable.170 = type <{ ptr, i32, i32, i32, [4 x i8] }>
%"class.sat::drat" = type { ptr, %class.svector.128, ptr, %"class.sat::clause_allocator", ptr, ptr, %class.svector.130, %class.svector.132, %class.vector.17, %class.svector.134, i8, i8, i8, i8, i8, %"struct.sat::drat::stats" }
%class.svector.128 = type { %class.vector.129 }
%class.vector.129 = type { ptr }
%class.svector.130 = type { %class.vector.131 }
%class.vector.131 = type { ptr }
%class.svector.132 = type { %class.vector.133 }
%class.vector.133 = type { ptr }
%"struct.sat::drat::stats" = type { i32, i32, i32, i32 }
%class.svector = type { %class.vector }

@_ZN3satL12null_literalE = internal global %"class.sat::literal" zeroinitializer, align 4

; Function Attrs: mustprogress nounwind uwtable
define linkonce_odr hidden void @_ZN3sat13justificationC2EjmNS0_4kindE(ptr noundef nonnull align 8 dereferenceable(20) %this, i32 noundef %lvl, i64 noundef %idx, i32 noundef %k) unnamed_addr #4 comdat align 2 {
entry:
  %this.addr = alloca ptr, align 8
  %lvl.addr = alloca i32, align 4
  %idx.addr = alloca i64, align 8
  %k.addr = alloca i32, align 4
  store ptr %this, ptr %this.addr, align 8
  store i32 %lvl, ptr %lvl.addr, align 4
  store i64 %idx, ptr %idx.addr, align 8
  store i32 %k, ptr %k.addr, align 4
  %this1 = load ptr, ptr %this.addr, align 8
  %m_level = getelementptr inbounds %"class.sat::justification", ptr %this1, i32 0, i32 0
  %0 = load i32, ptr %lvl.addr, align 4
  store i32 %0, ptr %m_level, align 8
  %m_val1 = getelementptr inbounds %"class.sat::justification", ptr %this1, i32 0, i32 2
  %1 = load i64, ptr %idx.addr, align 8
  store i64 %1, ptr %m_val1, align 8
  %m_val2 = getelementptr inbounds %"class.sat::justification", ptr %this1, i32 0, i32 3
  %2 = load i32, ptr %k.addr, align 4
  store i32 %2, ptr %m_val2, align 8
  ret void
}

; Function Attrs: mustprogress uwtable
define linkonce_odr hidden void @_ZN3sat6solver12set_conflictENS_13justificationE(ptr noundef nonnull align 8 dereferenceable(4408) %this, ptr noundef byval(%"class.sat::justification") align 8 %c) #5 comdat align 2 {
entry:
  %this.addr = alloca ptr, align 8
  %agg.tmp = alloca %"class.sat::justification", align 8
  %agg.tmp2 = alloca %"class.sat::literal", align 4
  store ptr %this, ptr %this.addr, align 8
  %this1 = load ptr, ptr %this.addr, align 8
  call void @llvm.memcpy.p0.p0.i64(ptr align 8 %agg.tmp, ptr align 8 %c, i64 24, i1 false)
  call void @llvm.memcpy.p0.p0.i64(ptr align 4 %agg.tmp2, ptr align 4 @_ZN3satL12null_literalE, i64 4, i1 false)
  %coerce.dive = getelementptr inbounds %"class.sat::literal", ptr %agg.tmp2, i32 0, i32 0
  %0 = load i32, ptr %coerce.dive, align 4
  call void @_ZN3sat6solver12set_conflictENS_13justificationENS_7literalE(ptr noundef nonnull align 8 dereferenceable(4408) %this1, ptr noundef byval(%"class.sat::justification") align 8 %agg.tmp, i32 %0)
  ret void
}

; Function Attrs: mustprogress uwtable
define linkonce_odr hidden void @_ZN3sat13justification20mk_ext_justificationEjm(ptr noalias sret(%"class.sat::justification") align 8 %agg.result, i32 noundef %lvl, i64 noundef %idx) #5 comdat align 2 {
entry:
  %lvl.addr = alloca i32, align 4
  %idx.addr = alloca i64, align 8
  store i32 %lvl, ptr %lvl.addr, align 4
  store i64 %idx, ptr %idx.addr, align 8
  %0 = load i32, ptr %lvl.addr, align 4
  %1 = load i64, ptr %idx.addr, align 8
  call void @_ZN3sat13justificationC2EjmNS0_4kindE(ptr noundef nonnull align 8 dereferenceable(20) %agg.result, i32 noundef %0, i64 noundef %1, i32 noundef 3)
  ret void
}

; Function Attrs: mustprogress nounwind uwtable
define linkonce_odr hidden noundef i32 @_ZNK3sat6solver9scope_lvlEv(ptr noundef nonnull align 8 dereferenceable(4408) %this) #4 comdat align 2 {
entry:
  %this.addr = alloca ptr, align 8
  store ptr %this, ptr %this.addr, align 8
  %this1 = load ptr, ptr %this.addr, align 8
  %m_scope_lvl = getelementptr inbounds %"class.sat::solver", ptr %this1, i32 0, i32 74
  %0 = load i32, ptr %m_scope_lvl, align 4
  ret i32 %0
}

; Function Attrs: mustprogress nounwind uwtable
define linkonce_odr hidden noundef nonnull align 8 dereferenceable(4408) ptr @_ZN3sat9extension1sEv(ptr noundef nonnull align 8 dereferenceable(32) %this) #4 comdat align 2 {
entry:
  %this.addr = alloca ptr, align 8
  store ptr %this, ptr %this.addr, align 8
  %this1 = load ptr, ptr %this.addr, align 8
  %m_solver = getelementptr inbounds %"class.sat::extension", ptr %this1, i32 0, i32 4
  %0 = load ptr, ptr %m_solver, align 8
  ret ptr %0
}

; Function Attrs: mustprogress uwtable
define hidden void @_ZN3euf6solver12set_conflictEm(ptr noundef nonnull align 8 dereferenceable(9136) %this, i64 noundef %idx) #5 align 2 {
entry:
  %this.addr = alloca ptr, align 8
  %idx.addr = alloca i64, align 8
  %agg.tmp = alloca %"class.sat::justification", align 8
  store ptr %this, ptr %this.addr, align 8
  store i64 %idx, ptr %idx.addr, align 8
  %this1 = load ptr, ptr %this.addr, align 8
  %call = call noundef nonnull align 8 dereferenceable(4408) ptr @_ZN3sat9extension1sEv(ptr noundef nonnull align 8 dereferenceable(32) %this1)
  %call2 = call noundef nonnull align 8 dereferenceable(4408) ptr @_ZN3sat9extension1sEv(ptr noundef nonnull align 8 dereferenceable(32) %this1)
  %call3 = call noundef i32 @_ZNK3sat6solver9scope_lvlEv(ptr noundef nonnull align 8 dereferenceable(4408) %call2)
  %0 = load i64, ptr %idx.addr, align 8
  call void @_ZN3sat13justification20mk_ext_justificationEjm(ptr sret(%"class.sat::justification") align 8 %agg.tmp, i32 noundef %call3, i64 noundef %0)
  call void @_ZN3sat6solver12set_conflictENS_13justificationE(ptr noundef nonnull align 8 dereferenceable(4408) %call, ptr noundef byval(%"class.sat::justification") align 8 %agg.tmp)
  ret void
}