; Function Attrs: mustprogress uwtable
define hidden void @_ZN3euf6solver12set_conflictEm(ptr nocapture noundef nonnull readonly align 8 dereferenceable(9136) %this, i64 noundef %idx) local_unnamed_addr #3 align 2 {
entry:
  %agg.tmp2 = alloca %"class.sat::justification", align 8
  %m_solver.i = getelementptr inbounds i8, ptr %this, i64 24
  %0 = load ptr, ptr %m_solver.i, align 8
  %m_scope_lvl.i = getelementptr inbounds i8, ptr %0, i64 3756
  %1 = load i32, ptr %m_scope_lvl.i, align 4
  call void @llvm.lifetime.start.p0(i64 24, ptr nonnull %agg.tmp2)
  store i32 %1, ptr %agg.tmp2, align 8
  %agg.tmp.sroa.23.0.agg.tmp2.sroa_idx = getelementptr inbounds i8, ptr %agg.tmp2, i64 8
  store i64 %idx, ptr %agg.tmp.sroa.23.0.agg.tmp2.sroa_idx, align 8
  %agg.tmp.sroa.3.0.agg.tmp2.sroa_idx = getelementptr inbounds i8, ptr %agg.tmp2, i64 16
  store i32 3, ptr %agg.tmp.sroa.3.0.agg.tmp2.sroa_idx, align 8
  %agg.tmp2.sroa.0.0.copyload.i.b = load i1, ptr @_ZN3satL12null_literalE.0, align 4
  %agg.tmp2.sroa.0.0.copyload.i = select i1 %agg.tmp2.sroa.0.0.copyload.i.b, i32 -2, i32 0
  tail call void @_ZN3sat6solver12set_conflictENS_13justificationENS_7literalE(ptr noundef nonnull align 8 dereferenceable(4408) %0, ptr noundef nonnull byval(%"class.sat::justification") align 8 %agg.tmp2, i32 %agg.tmp2.sroa.0.0.copyload.i)
  call void @llvm.lifetime.end.p0(i64 24, ptr nonnull %agg.tmp2)
  ret void
}